(ideluge.core.torrentmanager
TorrentManagerState
p1
(dp2
S'torrents'
p3
(lp4
(ideluge.core.torrentmanager
TorrentState
p5
(dp6
S'max_download_speed'
p7
F-1
sS'move_completed_path'
p8
S'/home/philipp/Downloads'
p9
sS'paused'
p10
I00
sS'max_upload_slots'
p11
I-1
sS'prioritize_first_last'
p12
I00
sS'max_connections'
p13
I-1
sS'compact'
p14
I00
sS'queue'
p15
I-1
sS'file_priorities'
p16
(lp17
I4
aI4
asS'filename'
p18
S'8f3948c6d7ff72d973d6f61d726ead492535b814'
p19
sS'max_upload_speed'
p20
F-1
sS'save_path'
p21
S'/home/philipp/Downloads'
p22
sS'time_added'
p23
F1546365834.8046839
sS'total_uploaded'
p24
I216879994
sS'torrent_id'
p25
S'8f3948c6d7ff72d973d6f61d726ead492535b814'
p26
sS'auto_managed'
p27
I01
sS'stop_at_ratio'
p28
I00
sS'move_completed'
p29
I00
sS'trackers'
p30
(lp31
sS'magnet'
p32
NsS'remove_at_ratio'
p33
I00
sS'stop_ratio'
p34
F2
sS'is_finished'
p35
I01
sbasb.